; Function Attrs: mustprogress nofree norecurse nosync nounwind willreturn memory(argmem: readwrite) uwtable
define void @_ZN6icu_7714MessagePattern5clearEv(ptr noundef nonnull align 8 captures(none) dereferenceable(127) initializes((96, 100), (120, 127)) %0) local_unnamed_addr #6 align 2 {
  %2 = getelementptr inbounds nuw i8, ptr %0, i64 24
  %3 = load i16, ptr %2, align 8, !tbaa !19
  %4 = and i16 %3, 1
  %.not.i = icmp eq i16 %4, 0
  %5 = and i16 %3, 30
  %storemerge.i = select i1 %.not.i, i16 %5, i16 2
  store i16 %storemerge.i, ptr %2, align 8, !tbaa !19
  %6 = getelementptr inbounds nuw i8, ptr %0, i64 96
  store i32 0, ptr %6, align 8, !tbaa !32
  %7 = getelementptr inbounds nuw i8, ptr %0, i64 120
  tail call void @llvm.memset.p0.i64(ptr noundef nonnull align 8 dereferenceable(7) %7, i8 0, i64 7, i1 false)
  ret void
}